target datalayout = "e-m:e-p270:32:32-p271:32:32-p272:64:64-i64:64-i128:128-f80:128-n8:16:32:64-S128"
target triple = "x86_64-pc-linux-gnu"

%class.ExportObjectModel = type { %class.QAbstractTableModel, %class.QList, %struct._export_object_list_t, %struct.export_object_list_gui_t, ptr }
%class.QAbstractTableModel = type { %class.QAbstractItemModel }
%class.QAbstractItemModel = type { %class.QObject }
%class.QObject = type { ptr, %class.QScopedPointer }
%class.QScopedPointer = type { ptr }
%class.QList = type { %struct.QArrayDataPointer }
%struct.QArrayDataPointer = type { ptr, ptr, i64 }
%struct._export_object_list_t = type { ptr, ptr, ptr }
%struct.export_object_list_gui_t = type { ptr }
%class.QVariant = type { %"struct.QVariant::Private" }
%"struct.QVariant::Private" = type { %union.anon, i64 }
%union.anon = type { ptr, [16 x i8] }
%class.QModelIndex = type { i32, i32, i64, ptr }
%class.QMetaType = type { ptr }

; Function Attrs: mustprogress nounwind uwtable
define linkonce_odr noundef ptr @_ZN17QArrayDataPointerI8QVariantE4dataEv(ptr noundef nonnull align 8 dereferenceable(24) %0) #2 comdat align 2 {
  %2 = alloca ptr, align 8
  store ptr %0, ptr %2, align 8
  %3 = load ptr, ptr %2, align 8
  %4 = getelementptr inbounds %struct.QArrayDataPointer, ptr %3, i32 0, i32 1
  %5 = load ptr, ptr %4, align 8
  ret ptr %5
}

; Function Attrs: mustprogress nounwind uwtable
define linkonce_odr void @_ZN9QMetaTypeC2EPKN9QtPrivate18QMetaTypeInterfaceE(ptr noundef nonnull align 8 dereferenceable(8) %0, ptr noundef %1) unnamed_addr #2 comdat align 2 {
  %3 = alloca ptr, align 8
  %4 = alloca ptr, align 8
  store ptr %0, ptr %3, align 8
  store ptr %1, ptr %4, align 8
  %5 = load ptr, ptr %3, align 8
  %6 = getelementptr inbounds %class.QMetaType, ptr %5, i32 0, i32 0
  %7 = load ptr, ptr %4, align 8
  store ptr %7, ptr %6, align 8
  ret void
}

; Function Attrs: mustprogress nounwind uwtable
define linkonce_odr noundef ptr @_ZN9QtPrivate25qMetaTypeInterfaceForTypeIPvEEPKNS_18QMetaTypeInterfaceEv() #2 comdat {
  ret ptr @_ZN9QtPrivate25QMetaTypeInterfaceWrapperIPvE8metaTypeE
}

; Function Attrs: mustprogress nounwind uwtable
define linkonce_odr noundef ptr @_ZN17QArrayDataPointerI8QVariantE3endEv(ptr noundef nonnull align 8 dereferenceable(24) %0) #2 comdat align 2 {
  %2 = alloca ptr, align 8
  store ptr %0, ptr %2, align 8
  %3 = load ptr, ptr %2, align 8
  %4 = call noundef ptr @_ZN17QArrayDataPointerI8QVariantE4dataEv(ptr noundef nonnull align 8 dereferenceable(24) %3) #9
  %5 = getelementptr inbounds %struct.QArrayDataPointer, ptr %3, i32 0, i32 2
  %6 = load i64, ptr %5, align 8
  %7 = getelementptr %class.QVariant, ptr %4, i64 %6
  ret ptr %7
}

; Function Attrs: mustprogress nounwind uwtable
define linkonce_odr noundef ptr @_ZN17QArrayDataPointerI8QVariantEptEv(ptr noundef nonnull align 8 dereferenceable(24) %0) #2 comdat align 2 {
  %2 = alloca ptr, align 8
  store ptr %0, ptr %2, align 8
  %3 = load ptr, ptr %2, align 8
  ret ptr %3
}

; Function Attrs: mustprogress uwtable
define linkonce_odr ptr @_ZN9QMetaType8fromTypeIPvEES_v() #0 comdat align 2 {
  %1 = alloca %class.QMetaType, align 8
  %2 = call noundef ptr @_ZN9QtPrivate25qMetaTypeInterfaceForTypeIPvEEPKNS_18QMetaTypeInterfaceEv()
  call void @_ZN9QMetaTypeC2EPKN9QtPrivate18QMetaTypeInterfaceE(ptr noundef nonnull align 8 dereferenceable(8) %1, ptr noundef %2)
  %3 = getelementptr inbounds %class.QMetaType, ptr %1, i32 0, i32 0
  %4 = load ptr, ptr %3, align 8
  ret ptr %4
}

; Function Attrs: mustprogress nounwind uwtable
define linkonce_odr noundef ptr @_ZNK17QArrayDataPointerI8QVariantEptEv(ptr noundef nonnull align 8 dereferenceable(24) %0) #2 comdat align 2 {
  %2 = alloca ptr, align 8
  store ptr %0, ptr %2, align 8
  %3 = load ptr, ptr %2, align 8
  ret ptr %3
}

; Function Attrs: mustprogress uwtable
define linkonce_odr noundef nonnull align 8 dereferenceable(32) ptr @_ZN5QListI8QVariantE11emplaceBackIJS0_EEERS0_DpOT_(ptr noundef nonnull align 8 dereferenceable(24) %0, ptr noundef nonnull align 8 dereferenceable(32) %1) #0 comdat align 2 {
  %3 = alloca ptr, align 8
  %4 = alloca ptr, align 8
  store ptr %0, ptr %3, align 8
  store ptr %1, ptr %4, align 8
  %5 = load ptr, ptr %3, align 8
  %6 = getelementptr inbounds %class.QList, ptr %5, i32 0, i32 0
  %7 = call noundef ptr @_ZN17QArrayDataPointerI8QVariantEptEv(ptr noundef nonnull align 8 dereferenceable(24) %6) #9
  %8 = getelementptr inbounds %class.QList, ptr %5, i32 0, i32 0
  %9 = call noundef ptr @_ZN17QArrayDataPointerI8QVariantEptEv(ptr noundef nonnull align 8 dereferenceable(24) %8) #9
  %10 = getelementptr inbounds %struct.QArrayDataPointer, ptr %9, i32 0, i32 2
  %11 = load i64, ptr %10, align 8
  %12 = load ptr, ptr %4, align 8
  call void @_ZN9QtPrivate16QMovableArrayOpsI8QVariantE7emplaceIJS1_EEEvxDpOT_(ptr noundef nonnull align 8 dereferenceable(24) %7, i64 noundef %11, ptr noundef nonnull align 8 dereferenceable(32) %12)
  %13 = getelementptr inbounds %class.QList, ptr %5, i32 0, i32 0
  %14 = call noundef ptr @_ZN17QArrayDataPointerI8QVariantE3endEv(ptr noundef nonnull align 8 dereferenceable(24) %13) #9
  %15 = getelementptr %class.QVariant, ptr %14, i64 -1
  ret ptr %15
}

; Function Attrs: mustprogress uwtable
define linkonce_odr void @_ZN8QVariant9fromValueIPvEENSt9enable_ifIXsr3stdE23is_copy_constructible_vIT_EES_E4typeERKS3_(ptr dead_on_unwind noalias writable sret(%class.QVariant) align 8 %0, ptr noundef nonnull align 8 dereferenceable(8) %1) #0 comdat align 2 {
  %3 = alloca ptr, align 8
  %4 = alloca ptr, align 8
  %5 = alloca %class.QMetaType, align 8
  store ptr %0, ptr %3, align 8
  store ptr %1, ptr %4, align 8
  %6 = call ptr @_ZN9QMetaType8fromTypeIPvEES_v()
  %7 = getelementptr inbounds %class.QMetaType, ptr %5, i32 0, i32 0
  store ptr %6, ptr %7, align 8
  %8 = load ptr, ptr %4, align 8
  %9 = getelementptr inbounds %class.QMetaType, ptr %5, i32 0, i32 0
  %10 = load ptr, ptr %9, align 8
  call void @_ZN8QVariantC1E9QMetaTypePKv(ptr noundef nonnull align 8 dereferenceable(32) %0, ptr %10, ptr noundef %8)
  ret void
}

; Function Attrs: mustprogress nounwind uwtable
define linkonce_odr noundef i64 @_ZNK5QListI8QVariantE4sizeEv(ptr noundef nonnull align 8 dereferenceable(24) %0) #2 comdat align 2 {
  %2 = alloca ptr, align 8
  store ptr %0, ptr %2, align 8
  %3 = load ptr, ptr %2, align 8
  %4 = getelementptr inbounds %class.QList, ptr %3, i32 0, i32 0
  %5 = call noundef ptr @_ZNK17QArrayDataPointerI8QVariantEptEv(ptr noundef nonnull align 8 dereferenceable(24) %4) #9
  %6 = getelementptr inbounds %struct.QArrayDataPointer, ptr %5, i32 0, i32 2
  %7 = load i64, ptr %6, align 8
  ret i64 %7
}

; Function Attrs: mustprogress uwtable
define linkonce_odr void @_ZN5QListI8QVariantE6appendEOS0_(ptr noundef nonnull align 8 dereferenceable(24) %0, ptr noundef nonnull align 8 dereferenceable(32) %1) #0 comdat align 2 {
  %3 = alloca ptr, align 8
  %4 = alloca ptr, align 8
  store ptr %0, ptr %3, align 8
  store ptr %1, ptr %4, align 8
  %5 = load ptr, ptr %3, align 8
  %6 = load ptr, ptr %4, align 8
  %7 = call noundef nonnull align 8 dereferenceable(32) ptr @_ZN5QListI8QVariantE11emplaceBackIJS0_EEERS0_DpOT_(ptr noundef nonnull align 8 dereferenceable(24) %5, ptr noundef nonnull align 8 dereferenceable(32) %6)
  ret void
}

; Function Attrs: mustprogress uwtable
define linkonce_odr void @_ZN14VariantPointerI22_export_object_entry_tE10asQVariantEPS0_(ptr dead_on_unwind noalias writable sret(%class.QVariant) align 8 %0, ptr noundef %1) #0 comdat align 2 {
  %3 = alloca ptr, align 8
  %4 = alloca ptr, align 8
  %5 = alloca ptr, align 8
  store ptr %0, ptr %3, align 8
  store ptr %1, ptr %4, align 8
  %6 = load ptr, ptr %4, align 8
  store ptr %6, ptr %5, align 8
  call void @_ZN8QVariant9fromValueIPvEENSt9enable_ifIXsr3stdE23is_copy_constructible_vIT_EES_E4typeERKS3_(ptr dead_on_unwind writable sret(%class.QVariant) align 8 %0, ptr noundef nonnull align 8 dereferenceable(8) %5)
  ret void
}

; Function Attrs: mustprogress nounwind uwtable
define linkonce_odr void @_ZN11QModelIndexC2Ev(ptr noundef nonnull align 8 dereferenceable(24) %0) unnamed_addr #2 comdat align 2 {
  %2 = alloca ptr, align 8
  store ptr %0, ptr %2, align 8
  %3 = load ptr, ptr %2, align 8
  %4 = getelementptr inbounds %class.QModelIndex, ptr %3, i32 0, i32 0
  store i32 -1, ptr %4, align 8
  %5 = getelementptr inbounds %class.QModelIndex, ptr %3, i32 0, i32 1
  store i32 -1, ptr %5, align 4
  %6 = getelementptr inbounds %class.QModelIndex, ptr %3, i32 0, i32 2
  store i64 0, ptr %6, align 8
  %7 = getelementptr inbounds %class.QModelIndex, ptr %3, i32 0, i32 3
  store ptr null, ptr %7, align 8
  ret void
}

; Function Attrs: mustprogress nounwind uwtable
define linkonce_odr noundef i64 @_ZNK5QListI8QVariantE5countEv(ptr noundef nonnull align 8 dereferenceable(24) %0) #2 comdat align 2 {
  %2 = alloca ptr, align 8
  store ptr %0, ptr %2, align 8
  %3 = load ptr, ptr %2, align 8
  %4 = call noundef i64 @_ZNK5QListI8QVariantE4sizeEv(ptr noundef nonnull align 8 dereferenceable(24) %3) #9
  ret i64 %4
}

; Function Attrs: mustprogress uwtable
define void @_ZN17ExportObjectModel14addObjectEntryEP22_export_object_entry_t(ptr noundef nonnull align 8 dereferenceable(80) %0, ptr noundef %1) #0 align 2 personality ptr @__gxx_personality_v0 {
  %3 = alloca ptr, align 8
  %4 = alloca ptr, align 8
  %5 = alloca i32, align 4
  %6 = alloca %class.QModelIndex, align 8
  %7 = alloca %class.QVariant, align 8
  %8 = alloca ptr, align 8
  %9 = alloca i32, align 4
  store ptr %0, ptr %3, align 8
  store ptr %1, ptr %4, align 8
  %10 = load ptr, ptr %3, align 8
  %11 = load ptr, ptr %4, align 8
  %12 = icmp eq ptr %11, null
  br i1 %12, label %13, label %14

13:                                               ; preds = %2
  br label %23

14:                                               ; preds = %2
  %15 = getelementptr inbounds %class.ExportObjectModel, ptr %10, i32 0, i32 1
  %16 = call noundef i64 @_ZNK5QListI8QVariantE5countEv(ptr noundef nonnull align 8 dereferenceable(24) %15) #9
  %17 = trunc i64 %16 to i32
  store i32 %17, ptr %5, align 4
  call void @_ZN11QModelIndexC2Ev(ptr noundef nonnull align 8 dereferenceable(24) %6) #9
  %18 = load i32, ptr %5, align 4
  %19 = load i32, ptr %5, align 4
  call void @_ZN18QAbstractItemModel15beginInsertRowsERK11QModelIndexii(ptr noundef nonnull align 8 dereferenceable(16) %10, ptr noundef nonnull align 8 dereferenceable(24) %6, i32 noundef %18, i32 noundef %19)
  %20 = getelementptr inbounds %class.ExportObjectModel, ptr %10, i32 0, i32 1
  %21 = load ptr, ptr %4, align 8
  call void @_ZN14VariantPointerI22_export_object_entry_tE10asQVariantEPS0_(ptr dead_on_unwind writable sret(%class.QVariant) align 8 %7, ptr noundef %21)
  invoke void @_ZN5QListI8QVariantE6appendEOS0_(ptr noundef nonnull align 8 dereferenceable(24) %20, ptr noundef nonnull align 8 dereferenceable(32) %7)
          to label %22 unwind label %24

22:                                               ; preds = %14
  call void @_ZN8QVariantD1Ev(ptr noundef nonnull align 8 dereferenceable(32) %7) #9
  call void @_ZN18QAbstractItemModel13endInsertRowsEv(ptr noundef nonnull align 8 dereferenceable(16) %10)
  br label %23

23:                                               ; preds = %22, %13
  ret void

24:                                               ; preds = %14
  %25 = landingpad { ptr, i32 }
          cleanup
  %26 = extractvalue { ptr, i32 } %25, 0
  store ptr %26, ptr %8, align 8
  %27 = extractvalue { ptr, i32 } %25, 1
  store i32 %27, ptr %9, align 4
  call void @_ZN8QVariantD1Ev(ptr noundef nonnull align 8 dereferenceable(32) %7) #9
  br label %28

28:                                               ; preds = %24
  %29 = load ptr, ptr %8, align 8
  %30 = load i32, ptr %9, align 4
  %31 = insertvalue { ptr, i32 } poison, ptr %29, 0
  %32 = insertvalue { ptr, i32 } %31, i32 %30, 1
  resume { ptr, i32 } %32
}