; Function Attrs: mustprogress uwtable
define void @_ZN17ExportObjectModel14addObjectEntryEP22_export_object_entry_t(ptr noundef nonnull align 8 dereferenceable(80) %0, ptr noundef %1) local_unnamed_addr #0 align 2 personality ptr @__gxx_personality_v0 {
  %3 = alloca ptr, align 8
  %4 = alloca %class.QModelIndex, align 8
  %5 = alloca %class.QVariant, align 8
  %6 = icmp eq ptr %1, null
  br i1 %6, label %15, label %7

7:                                                ; preds = %2
  %8 = getelementptr inbounds i8, ptr %0, i64 16
  %9 = getelementptr inbounds i8, ptr %0, i64 32
  %10 = load i64, ptr %9, align 8
  %11 = trunc i64 %10 to i32
  store i32 -1, ptr %4, align 8
  %12 = getelementptr inbounds i8, ptr %4, i64 4
  store i32 -1, ptr %12, align 4
  %13 = getelementptr inbounds i8, ptr %4, i64 8
  call void @llvm.memset.p0.i64(ptr noundef nonnull align 8 dereferenceable(16) %13, i8 0, i64 16, i1 false)
  call void @_ZN18QAbstractItemModel15beginInsertRowsERK11QModelIndexii(ptr noundef nonnull align 8 dereferenceable(16) %0, ptr noundef nonnull align 8 dereferenceable(24) %4, i32 noundef %11, i32 noundef %11)
  call void @llvm.lifetime.start.p0(i64 8, ptr nonnull %3)
  store ptr %1, ptr %3, align 8, !noalias !28
  call void @_ZN8QVariantC1E9QMetaTypePKv(ptr noundef nonnull align 8 dereferenceable(32) %5, ptr nonnull @_ZN9QtPrivate25QMetaTypeInterfaceWrapperIPvE8metaTypeE, ptr noundef nonnull %3)
  call void @llvm.lifetime.end.p0(i64 8, ptr nonnull %3)
  %14 = load i64, ptr %9, align 8
  invoke void @_ZN9QtPrivate16QMovableArrayOpsI8QVariantE7emplaceIJS1_EEEvxDpOT_(ptr noundef nonnull align 8 dereferenceable(24) %8, i64 noundef %14, ptr noundef nonnull align 8 dereferenceable(32) %5)
          to label %_ZN5QListI8QVariantE6appendEOS0_.exit unwind label %16

_ZN5QListI8QVariantE6appendEOS0_.exit:            ; preds = %7
  call void @_ZN8QVariantD1Ev(ptr noundef nonnull align 8 dereferenceable(32) %5) #18
  call void @_ZN18QAbstractItemModel13endInsertRowsEv(ptr noundef nonnull align 8 dereferenceable(16) %0)
  br label %15

15:                                               ; preds = %2, %_ZN5QListI8QVariantE6appendEOS0_.exit
  ret void

16:                                               ; preds = %7
  %17 = landingpad { ptr, i32 }
          cleanup
  call void @_ZN8QVariantD1Ev(ptr noundef nonnull align 8 dereferenceable(32) %5) #18
  resume { ptr, i32 } %17
}